target datalayout = "e-m:e-p270:32:32-p271:32:32-p272:64:64-i64:64-i128:128-f80:128-n8:16:32:64-S128"
target triple = "x86_64-pc-linux-gnu"

%struct._VAConfigAttrib = type { i32, i32 }
%struct.AVCodecContext = type { ptr, i32, i32, ptr, i32, i32, ptr, ptr, ptr, i64, i32, i32, ptr, i32, %struct.AVRational, %struct.AVRational, %struct.AVRational, i32, i32, i32, i32, i32, %struct.AVRational, i32, i32, i32, i32, i32, i32, i32, i32, i32, i32, i32, ptr, ptr, i32, float, float, float, float, float, float, float, float, float, i32, i32, i32, i32, i32, i32, i32, i32, i32, i32, i32, i32, ptr, ptr, ptr, i32, i32, i32, i32, i32, i32, i32, i32, i32, i32, %struct.AVChannelLayout, i32, i32, i32, i32, i32, i32, i32, i32, ptr, i32, i32, i32, float, float, i32, i32, i32, i32, i32, ptr, i64, i64, float, float, i32, i32, ptr, ptr, i32, i32, i32, i32, i32, ptr, ptr, ptr, ptr, i32, i32, [8 x i64], i32, i32, i32, i32, i32, i32, i32, ptr, ptr, i32, i32, i32, i32, i32, i32, i32, i32, i32, i32, ptr, ptr, i32, i32, ptr, ptr, ptr, ptr, i32, i32, i64, i32, i32, i64, ptr, i64, ptr, i32, ptr, i32 }
%struct.AVRational = type { i32, i32 }
%struct.AVChannelLayout = type { i32, i32, %union.anon, ptr }
%union.anon = type { i64 }
%struct.VAAPIEncodeContext = type { %struct.FFHWBaseEncodeContext, ptr, i32, i32, i32, i32, i32, i32, ptr, ptr, i32, i32, i32, i32, i32, i32, [4 x %struct._VAConfigAttrib], i32, i32, i32, ptr, ptr, [4 x i32], [4 x ptr], [4 x i64], i32, %struct._VAEncMiscParameterRateControl, %struct._VAEncMiscParameterHRD, %struct._VAEncMiscParameterFrameRate, %struct._VAEncMiscParameterBufferMaxFrameSize, %struct._VAEncMiscParameterBufferQualityLevel, ptr, ptr, i32, i32, i32, i32, i32, i32, [20 x i32], [22 x i32], [21 x i32], [23 x i32], i32, i32, ptr, i32, i32 }
%struct.FFHWBaseEncodeContext = type { ptr, ptr, ptr, i32, i32, i32, i32, i32, i32, ptr, ptr, ptr, ptr, ptr, ptr, ptr, ptr, [2 x ptr], i32, i64, i64, i64, i64, i64, i64, i64, [112 x i64], i32, i32, i32, i32, i32, i32, i32, i32, i32, i32, i32, i32, i32, i32, i32, i32, ptr, i32, ptr, i32, ptr }
%struct._VAEncMiscParameterRateControl = type { i32, i32, i32, i32, i32, i32, %union.anon.0, i32, i32, i32, i32, [4 x i32] }
%union.anon.0 = type { %struct.anon }
%struct.anon = type { i32 }
%struct._VAEncMiscParameterHRD = type { i32, i32, [4 x i32] }
%struct._VAEncMiscParameterFrameRate = type { i32, %union.anon.1, [4 x i32] }
%union.anon.1 = type { %struct.anon.2 }
%struct.anon.2 = type { i32 }
%struct._VAEncMiscParameterBufferMaxFrameSize = type { i32, i32, [4 x i32] }
%struct._VAEncMiscParameterBufferQualityLevel = type { i32, [4 x i32] }
%struct.AVVAAPIDeviceContext = type { ptr, i32 }
%union._VAConfigAttribValEncROI = type { %struct.anon.5 }
%struct.anon.5 = type { i32 }

@__const.vaapi_encode_init_roi.attr = private unnamed_addr constant %struct._VAConfigAttrib { i32 25, i32 0 }, align 4
@.str.151 = private unnamed_addr constant [48 x i8] c"Failed to query ROI config attribute: %d (%s).\0A\00", align 1

; Function Attrs: cold nounwind optsize uwtable
define internal i32 @vaapi_encode_init_roi(ptr noundef %0) #2 {
  %2 = alloca i32, align 4
  %3 = alloca ptr, align 8
  %4 = alloca ptr, align 8
  %5 = alloca ptr, align 8
  %6 = alloca i32, align 4
  %7 = alloca %struct._VAConfigAttrib, align 4
  %8 = alloca i32, align 4
  %9 = alloca %union._VAConfigAttribValEncROI, align 4
  store ptr %0, ptr %3, align 8, !tbaa !4
  call void @llvm.lifetime.start.p0(i64 8, ptr %4) #10
  %10 = load ptr, ptr %3, align 8, !tbaa !4
  %11 = getelementptr inbounds nuw %struct.AVCodecContext, ptr %10, i32 0, i32 6
  %12 = load ptr, ptr %11, align 8, !tbaa !11
  store ptr %12, ptr %4, align 8, !tbaa !31
  call void @llvm.lifetime.start.p0(i64 8, ptr %5) #10
  %13 = load ptr, ptr %3, align 8, !tbaa !4
  %14 = getelementptr inbounds nuw %struct.AVCodecContext, ptr %13, i32 0, i32 6
  %15 = load ptr, ptr %14, align 8, !tbaa !11
  store ptr %15, ptr %5, align 8, !tbaa !33
  call void @llvm.lifetime.start.p0(i64 4, ptr %6) #10
  call void @llvm.lifetime.start.p0(i64 8, ptr %7) #10
  call void @llvm.memcpy.p0.p0.i64(ptr align 4 %7, ptr align 4 @__const.vaapi_encode_init_roi.attr, i64 8, i1 false)
  %16 = load ptr, ptr %5, align 8, !tbaa !33
  %17 = getelementptr inbounds nuw %struct.VAAPIEncodeContext, ptr %16, i32 0, i32 20
  %18 = load ptr, ptr %17, align 8, !tbaa !62
  %19 = getelementptr inbounds nuw %struct.AVVAAPIDeviceContext, ptr %18, i32 0, i32 0
  %20 = load ptr, ptr %19, align 8, !tbaa !75
  %21 = load ptr, ptr %5, align 8, !tbaa !33
  %22 = getelementptr inbounds nuw %struct.VAAPIEncodeContext, ptr %21, i32 0, i32 11
  %23 = load i32, ptr %22, align 4, !tbaa !77
  %24 = load ptr, ptr %5, align 8, !tbaa !33
  %25 = getelementptr inbounds nuw %struct.VAAPIEncodeContext, ptr %24, i32 0, i32 12
  %26 = load i32, ptr %25, align 8, !tbaa !78
  %27 = call i32 @vaGetConfigAttributes(ptr noundef %20, i32 noundef %23, i32 noundef %26, ptr noundef %7, i32 noundef 1)
  store i32 %27, ptr %6, align 4, !tbaa !37
  %28 = load i32, ptr %6, align 4, !tbaa !37
  %29 = icmp ne i32 %28, 0
  br i1 %29, label %30, label %35

30:                                               ; preds = %1
  %31 = load ptr, ptr %3, align 8, !tbaa !4
  %32 = load i32, ptr %6, align 4, !tbaa !37
  %33 = load i32, ptr %6, align 4, !tbaa !37
  %34 = call ptr @vaErrorStr(i32 noundef %33)
  call void (ptr, i32, ptr, ...) @av_log(ptr noundef %31, i32 noundef 16, ptr noundef @.str.151, i32 noundef %32, ptr noundef %34)
  store i32 -542398533, ptr %2, align 4
  store i32 1, ptr %8, align 4
  br label %71

35:                                               ; preds = %1
  %36 = getelementptr inbounds nuw %struct._VAConfigAttrib, ptr %7, i32 0, i32 1
  %37 = load i32, ptr %36, align 4, !tbaa !149
  %38 = icmp eq i32 %37, -2147483648
  br i1 %38, label %39, label %42

39:                                               ; preds = %35
  %40 = load ptr, ptr %4, align 8, !tbaa !31
  %41 = getelementptr inbounds nuw %struct.FFHWBaseEncodeContext, ptr %40, i32 0, i32 40
  store i32 0, ptr %41, align 4, !tbaa !209
  br label %70

42:                                               ; preds = %35
  call void @llvm.lifetime.start.p0(i64 4, ptr %9) #10
  %43 = getelementptr inbounds nuw %struct._VAConfigAttrib, ptr %7, i32 0, i32 1
  %44 = load i32, ptr %43, align 4, !tbaa !149
  store i32 %44, ptr %9, align 4, !tbaa !158
  %45 = load i32, ptr %9, align 4
  %46 = and i32 %45, 255
  %47 = load ptr, ptr %5, align 8, !tbaa !33
  %48 = getelementptr inbounds nuw %struct.VAAPIEncodeContext, ptr %47, i32 0, i32 43
  store i32 %46, ptr %48, align 8, !tbaa !210
  %49 = load ptr, ptr %5, align 8, !tbaa !33
  %50 = getelementptr inbounds nuw %struct.VAAPIEncodeContext, ptr %49, i32 0, i32 43
  %51 = load i32, ptr %50, align 8, !tbaa !210
  %52 = icmp sgt i32 %51, 0
  br i1 %52, label %53, label %65

53:                                               ; preds = %42
  %54 = load ptr, ptr %5, align 8, !tbaa !33
  %55 = getelementptr inbounds nuw %struct.VAAPIEncodeContext, ptr %54, i32 0, i32 13
  %56 = load i32, ptr %55, align 4, !tbaa !176
  %57 = icmp eq i32 %56, 16
  br i1 %57, label %63, label %58

58:                                               ; preds = %53
  %59 = load i32, ptr %9, align 4
  %60 = lshr i32 %59, 9
  %61 = and i32 %60, 1
  %62 = icmp ne i32 %61, 0
  br label %63

63:                                               ; preds = %58, %53
  %64 = phi i1 [ true, %53 ], [ %62, %58 ]
  br label %65

65:                                               ; preds = %63, %42
  %66 = phi i1 [ false, %42 ], [ %64, %63 ]
  %67 = zext i1 %66 to i32
  %68 = load ptr, ptr %4, align 8, !tbaa !31
  %69 = getelementptr inbounds nuw %struct.FFHWBaseEncodeContext, ptr %68, i32 0, i32 40
  store i32 %67, ptr %69, align 4, !tbaa !209
  call void @llvm.lifetime.end.p0(i64 4, ptr %9) #10
  br label %70

70:                                               ; preds = %65, %39
  store i32 0, ptr %2, align 4
  store i32 1, ptr %8, align 4
  br label %71

71:                                               ; preds = %70, %30
  call void @llvm.lifetime.end.p0(i64 8, ptr %7) #10
  call void @llvm.lifetime.end.p0(i64 4, ptr %6) #10
  call void @llvm.lifetime.end.p0(i64 8, ptr %5) #10
  call void @llvm.lifetime.end.p0(i64 8, ptr %4) #10
  %72 = load i32, ptr %2, align 4
  ret i32 %72
}