; Function Attrs: cold nounwind optsize uwtable
define internal fastcc range(i32 -542398533, 1) i32 @vaapi_encode_init_roi(ptr noundef %0) unnamed_addr #2 {
  %2 = alloca %struct._VAConfigAttrib, align 8
  %3 = getelementptr inbounds nuw i8, ptr %0, i64 32
  %4 = load ptr, ptr %3, align 8, !tbaa !4
  call void @llvm.lifetime.start.p0(i64 8, ptr nonnull %2) #9
  store i64 25, ptr %2, align 8
  %5 = getelementptr inbounds nuw i8, ptr %4, i64 1312
  %6 = load ptr, ptr %5, align 8, !tbaa !52
  %7 = load ptr, ptr %6, align 8, !tbaa !65
  %8 = getelementptr inbounds nuw i8, ptr %4, i64 1244
  %9 = load i32, ptr %8, align 4, !tbaa !67
  %10 = getelementptr inbounds nuw i8, ptr %4, i64 1248
  %11 = load i32, ptr %10, align 8, !tbaa !68
  %12 = call i32 @vaGetConfigAttributes(ptr noundef %7, i32 noundef %9, i32 noundef %11, ptr noundef nonnull %2, i32 noundef 1) #9
  %.not = icmp eq i32 %12, 0
  br i1 %.not, label %15, label %13

13:                                               ; preds = %1
  %14 = call ptr @vaErrorStr(i32 noundef %12) #9
  call void (ptr, i32, ptr, ...) @av_log(ptr noundef nonnull %0, i32 noundef 16, ptr noundef nonnull @.str.151, i32 noundef %12, ptr noundef %14) #9
  br label %35

15:                                               ; preds = %1
  %16 = getelementptr inbounds nuw i8, ptr %2, i64 4
  %17 = load i32, ptr %16, align 4, !tbaa !132
  %18 = icmp eq i32 %17, -2147483648
  br i1 %18, label %19, label %21

19:                                               ; preds = %15
  %20 = getelementptr inbounds nuw i8, ptr %4, i64 1140
  store i32 0, ptr %20, align 4, !tbaa !175
  br label %35

21:                                               ; preds = %15
  %22 = and i32 %17, 255
  %23 = getelementptr inbounds nuw i8, ptr %4, i64 1952
  store i32 %22, ptr %23, align 8, !tbaa !176
  %.not17 = icmp eq i32 %22, 0
  br i1 %.not17, label %32, label %24

24:                                               ; preds = %21
  %25 = getelementptr inbounds nuw i8, ptr %4, i64 1252
  %26 = load i32, ptr %25, align 4, !tbaa !158
  %27 = icmp eq i32 %26, 16
  %28 = and i32 %17, 512
  %29 = icmp ne i32 %28, 0
  %30 = or i1 %29, %27
  %31 = zext i1 %30 to i32
  br label %32

32:                                               ; preds = %24, %21
  %33 = phi i32 [ 0, %21 ], [ %31, %24 ]
  %34 = getelementptr inbounds nuw i8, ptr %4, i64 1140
  store i32 %33, ptr %34, align 4, !tbaa !175
  br label %35

35:                                               ; preds = %19, %32, %13
  %.0 = phi i32 [ -542398533, %13 ], [ 0, %32 ], [ 0, %19 ]
  call void @llvm.lifetime.end.p0(i64 8, ptr nonnull %2) #9
  ret i32 %.0
}